; Function Attrs: mustprogress nofree norecurse nosync nounwind memory(read, argmem: readwrite, inaccessiblemem: none) uwtable
define internal noundef i64 @_ZNK5faiss12_GLOBAL__N_118IVFBinaryScannerL2INS_17HammingComputer16EE10scan_codesEmPKhPKlPiPlm(ptr nocapture noundef nonnull readonly align 8 dereferenceable(48) %0, i64 noundef %1, ptr noalias nocapture noundef readonly %2, ptr noalias nocapture noundef readonly %3, ptr noalias nocapture noundef %4, ptr noalias nocapture noundef %5, i64 noundef %6) unnamed_addr #15 align 2 {
  %.not24 = icmp eq i64 %1, 0
  br i1 %.not24, label %._crit_edge, label %.lr.ph

.lr.ph:                                           ; preds = %7
  %8 = getelementptr inbounds i8, ptr %0, i64 8
  %9 = load <2 x i64>, ptr %8, align 8
  %10 = getelementptr inbounds i8, ptr %0, i64 32
  %11 = load i8, ptr %10, align 8
  %12 = and i8 %11, 1
  %.not = icmp eq i8 %12, 0
  %13 = getelementptr inbounds i8, ptr %0, i64 40
  %14 = load i64, ptr %13, align 8
  %15 = shl i64 %14, 32
  %16 = getelementptr inbounds i8, ptr %4, i64 -4
  %17 = getelementptr inbounds i8, ptr %5, i64 -8
  %18 = icmp ult i64 %6, 2
  %.phi.trans.insert.i = getelementptr inbounds i32, ptr %16, i64 %6
  %19 = getelementptr inbounds i8, ptr %0, i64 24
  %20 = load i64, ptr %19, align 8
  br label %21

21:                                               ; preds = %.lr.ph, %76
  %.023 = phi ptr [ %2, %.lr.ph ], [ %77, %76 ]
  %.01722 = phi i64 [ 0, %.lr.ph ], [ %.1, %76 ]
  %.01820 = phi i64 [ 0, %.lr.ph ], [ %78, %76 ]
  %22 = load <2 x i64>, ptr %.023, align 8
  %23 = xor <2 x i64> %9, %22
  %24 = tail call <2 x i64> @llvm.ctpop.v2i64(<2 x i64> %23), !range !210
  %25 = trunc <2 x i64> %24 to <2 x i32>
  %shift = shufflevector <2 x i32> %25, <2 x i32> poison, <2 x i32> <i32 1, i32 poison>
  %26 = add nuw nsw <2 x i32> %shift, %25
  %27 = extractelement <2 x i32> %26, i64 0
  %28 = load i32, ptr %4, align 4
  %29 = icmp ult i32 %27, %28
  br i1 %29, label %30, label %76

30:                                               ; preds = %21
  br i1 %.not, label %33, label %31

31:                                               ; preds = %30
  %32 = or i64 %15, %.01820
  br label %36

33:                                               ; preds = %30
  %34 = getelementptr inbounds i64, ptr %3, i64 %.01820
  %35 = load i64, ptr %34, align 8
  br label %36

36:                                               ; preds = %33, %31
  %37 = phi i64 [ %32, %31 ], [ %35, %33 ]
  br i1 %18, label %_ZN5faiss16heap_replace_topINS_4CMaxIilEEEEvmPNT_1TEPNS3_2TIES4_S6_.exit, label %.lr.ph.i

.lr.ph.i:                                         ; preds = %36, %66
  %38 = phi i64 [ %71, %66 ], [ 3, %36 ]
  %39 = phi i64 [ %70, %66 ], [ 2, %36 ]
  %.056.i = phi i64 [ %.1.i, %66 ], [ 1, %36 ]
  %40 = icmp eq i64 %39, %6
  br i1 %40, label %.lr.ph._ZN5faiss4CMaxIilE4cmp2Eiill.exit.thread_crit_edge.i, label %41

.lr.ph._ZN5faiss4CMaxIilE4cmp2Eiill.exit.thread_crit_edge.i: ; preds = %.lr.ph.i
  %.pre.i = load i32, ptr %.phi.trans.insert.i, align 4
  br label %_ZN5faiss4CMaxIilE4cmp2Eiill.exit.thread.i

41:                                               ; preds = %.lr.ph.i
  %42 = getelementptr inbounds i32, ptr %16, i64 %39
  %43 = load i32, ptr %42, align 4
  %44 = getelementptr inbounds i32, ptr %16, i64 %38
  %45 = load i32, ptr %44, align 4
  %46 = getelementptr inbounds i64, ptr %17, i64 %38
  %47 = load i64, ptr %46, align 8
  %48 = icmp sgt i32 %43, %45
  br i1 %48, label %_ZN5faiss4CMaxIilE4cmp2Eiill.exit.thread.i, label %_ZN5faiss4CMaxIilE4cmp2Eiill.exit.i

_ZN5faiss4CMaxIilE4cmp2Eiill.exit.i:              ; preds = %41
  %49 = getelementptr inbounds i64, ptr %17, i64 %39
  %50 = load i64, ptr %49, align 8
  %51 = icmp eq i32 %43, %45
  %52 = icmp sgt i64 %50, %47
  %53 = and i1 %51, %52
  br i1 %53, label %_ZN5faiss4CMaxIilE4cmp2Eiill.exit.thread.i, label %61

_ZN5faiss4CMaxIilE4cmp2Eiill.exit.thread.i:       ; preds = %_ZN5faiss4CMaxIilE4cmp2Eiill.exit.i, %41, %.lr.ph._ZN5faiss4CMaxIilE4cmp2Eiill.exit.thread_crit_edge.i
  %54 = phi i32 [ %.pre.i, %.lr.ph._ZN5faiss4CMaxIilE4cmp2Eiill.exit.thread_crit_edge.i ], [ %43, %41 ], [ %43, %_ZN5faiss4CMaxIilE4cmp2Eiill.exit.i ]
  %55 = icmp slt i32 %54, %27
  br i1 %55, label %_ZN5faiss16heap_replace_topINS_4CMaxIilEEEEvmPNT_1TEPNS3_2TIES4_S6_.exit, label %_ZN5faiss4CMaxIilE4cmp2Eiill.exit54.i

_ZN5faiss4CMaxIilE4cmp2Eiill.exit54.i:            ; preds = %_ZN5faiss4CMaxIilE4cmp2Eiill.exit.thread.i
  %56 = getelementptr inbounds i64, ptr %17, i64 %39
  %57 = load i64, ptr %56, align 8
  %58 = icmp eq i32 %54, %27
  %59 = icmp slt i64 %57, %37
  %60 = and i1 %58, %59
  br i1 %60, label %_ZN5faiss16heap_replace_topINS_4CMaxIilEEEEvmPNT_1TEPNS3_2TIES4_S6_.exit, label %66

61:                                               ; preds = %_ZN5faiss4CMaxIilE4cmp2Eiill.exit.i
  %62 = icmp slt i32 %45, %27
  br i1 %62, label %_ZN5faiss16heap_replace_topINS_4CMaxIilEEEEvmPNT_1TEPNS3_2TIES4_S6_.exit, label %_ZN5faiss4CMaxIilE4cmp2Eiill.exit55.i

_ZN5faiss4CMaxIilE4cmp2Eiill.exit55.i:            ; preds = %61
  %63 = icmp eq i32 %45, %27
  %64 = icmp slt i64 %47, %37
  %65 = and i1 %63, %64
  br i1 %65, label %_ZN5faiss16heap_replace_topINS_4CMaxIilEEEEvmPNT_1TEPNS3_2TIES4_S6_.exit, label %66

66:                                               ; preds = %_ZN5faiss4CMaxIilE4cmp2Eiill.exit55.i, %_ZN5faiss4CMaxIilE4cmp2Eiill.exit54.i
  %67 = phi i64 [ %57, %_ZN5faiss4CMaxIilE4cmp2Eiill.exit54.i ], [ %47, %_ZN5faiss4CMaxIilE4cmp2Eiill.exit55.i ]
  %.sink.i = phi i32 [ %54, %_ZN5faiss4CMaxIilE4cmp2Eiill.exit54.i ], [ %45, %_ZN5faiss4CMaxIilE4cmp2Eiill.exit55.i ]
  %.1.i = phi i64 [ %39, %_ZN5faiss4CMaxIilE4cmp2Eiill.exit54.i ], [ %38, %_ZN5faiss4CMaxIilE4cmp2Eiill.exit55.i ]
  %68 = getelementptr inbounds i32, ptr %16, i64 %.056.i
  store i32 %.sink.i, ptr %68, align 4
  %69 = getelementptr inbounds i64, ptr %17, i64 %.056.i
  store i64 %67, ptr %69, align 8
  %70 = shl i64 %.1.i, 1
  %71 = or disjoint i64 %70, 1
  %72 = icmp ugt i64 %70, %6
  br i1 %72, label %_ZN5faiss16heap_replace_topINS_4CMaxIilEEEEvmPNT_1TEPNS3_2TIES4_S6_.exit, label %.lr.ph.i, !llvm.loop !208

_ZN5faiss16heap_replace_topINS_4CMaxIilEEEEvmPNT_1TEPNS3_2TIES4_S6_.exit: ; preds = %_ZN5faiss4CMaxIilE4cmp2Eiill.exit.thread.i, %_ZN5faiss4CMaxIilE4cmp2Eiill.exit54.i, %61, %_ZN5faiss4CMaxIilE4cmp2Eiill.exit55.i, %66, %36
  %.0.lcssa.i = phi i64 [ 1, %36 ], [ %.1.i, %66 ], [ %.056.i, %_ZN5faiss4CMaxIilE4cmp2Eiill.exit54.i ], [ %.056.i, %_ZN5faiss4CMaxIilE4cmp2Eiill.exit55.i ], [ %.056.i, %_ZN5faiss4CMaxIilE4cmp2Eiill.exit.thread.i ], [ %.056.i, %61 ]
  %73 = getelementptr inbounds i32, ptr %16, i64 %.0.lcssa.i
  store i32 %27, ptr %73, align 4
  %74 = getelementptr inbounds i64, ptr %17, i64 %.0.lcssa.i
  store i64 %37, ptr %74, align 8
  %75 = add i64 %.01722, 1
  br label %76

76:                                               ; preds = %_ZN5faiss16heap_replace_topINS_4CMaxIilEEEEvmPNT_1TEPNS3_2TIES4_S6_.exit, %21
  %.1 = phi i64 [ %75, %_ZN5faiss16heap_replace_topINS_4CMaxIilEEEEvmPNT_1TEPNS3_2TIES4_S6_.exit ], [ %.01722, %21 ]
  %77 = getelementptr inbounds i8, ptr %.023, i64 %20
  %78 = add nuw i64 %.01820, 1
  %exitcond.not = icmp eq i64 %78, %1
  br i1 %exitcond.not, label %._crit_edge, label %21, !llvm.loop !213

._crit_edge:                                      ; preds = %76, %7
  %.017.lcssa = phi i64 [ 0, %7 ], [ %.1, %76 ]
  ret i64 %.017.lcssa
}